target datalayout = "e-m:e-p270:32:32-p271:32:32-p272:64:64-i64:64-i128:128-f80:128-n8:16:32:64-S128"
target triple = "x86_64-pc-linux-gnu"

; Function Attrs: nounwind uwtable
define void @zend_error_zstr(i32 noundef %0, ptr noundef %1) #0 {
  %3 = alloca i32, align 4
  %4 = alloca ptr, align 8
  %5 = alloca ptr, align 8
  %6 = alloca i32, align 4
  store i32 %0, ptr %3, align 4
  store ptr %1, ptr %4, align 8
  %7 = load i32, ptr %3, align 4
  call void @get_filename_lineno(i32 noundef %7, ptr noundef %5, ptr noundef %6)
  %8 = load i32, ptr %3, align 4
  %9 = load ptr, ptr %5, align 8
  %10 = load i32, ptr %6, align 4
  %11 = load ptr, ptr %4, align 8
  call void @zend_error_zstr_at(i32 noundef %8, ptr noundef %9, i32 noundef %10, ptr noundef %11)
  ret void
}