; Function Attrs: nounwind uwtable
define void @zend_error_zstr(i32 noundef %0, ptr noundef %1) local_unnamed_addr #0 {
  %3 = alloca ptr, align 8
  %4 = alloca i32, align 4
  call fastcc void @get_filename_lineno(i32 noundef %0, ptr noundef nonnull %3, ptr noundef nonnull %4)
  %5 = load ptr, ptr %3, align 8
  %6 = load i32, ptr %4, align 4
  tail call void @zend_error_zstr_at(i32 noundef %0, ptr noundef %5, i32 noundef %6, ptr noundef %1)
  ret void
}